
build/fullasmtests/simple.riscv:     file format elf32-littleriscv

Contents of section .text:
 0000 13000000 13000000 13000000 13000000  ................
 0010 13000000 13000000 13000000 13000000  ................
 0020 13000000 13000000 13000000 13000000  ................
 0030 13000000 13000000 13000000 13000000  ................
 0040 13000000 13000000 13000000 13000000  ................
 0050 13000000 13000000 13000000 13000000  ................
 0060 13000000 13000000 13000000 13000000  ................
 0070 13000000 13000000 13000000 13000000  ................
 0080 13000000 13000000 13000000 13000000  ................
 0090 13000000 13000000 13000000 13000000  ................
 00a0 13000000 13000000 13000000 13000000  ................
 00b0 13000000 13000000 13000000 13000000  ................
 00c0 13000000 13000000 13000000 13000000  ................
 00d0 13000000 13000000 13000000 13000000  ................
 00e0 13000000 13000000 13000000 13000000  ................
 00f0 13000000 13000000 13000000 13000000  ................
 0100 13000000 13000000 13000000 13000000  ................
 0110 13000000 13000000 13000000 13000000  ................
 0120 13000000 13000000 13000000 13000000  ................
 0130 13000000 13000000 13000000 13000000  ................
 0140 13000000 13000000 13000000 13000000  ................
 0150 13000000 13000000 13000000 13000000  ................
 0160 13000000 13000000 13000000 13000000  ................
 0170 13000000 13000000 13000000 13000000  ................
 0180 13000000 13000000 13000000 13000000  ................
 0190 130e0000 b70501f0 938585ff 13060000  ................
 01a0 23a0c500 6f004000 37150040 2320c501  #...o.@.7..@# ..
 01b0 6f000000 00000000 00000000 00000000  o...............
 01c0 00000000                             ....            
Contents of section .riscv.attributes:
 0000 41190000 00726973 63760001 0f000000  A....riscv......
 0010 05727633 32693270 3000               .rv32i2p0.      

Disassembly of section .text:

00000000 <_start>:
   0:	00000013          	addi	x0,x0,0
   4:	00000013          	addi	x0,x0,0
   8:	00000013          	addi	x0,x0,0
   c:	00000013          	addi	x0,x0,0
  10:	00000013          	addi	x0,x0,0
  14:	00000013          	addi	x0,x0,0
  18:	00000013          	addi	x0,x0,0
  1c:	00000013          	addi	x0,x0,0
  20:	00000013          	addi	x0,x0,0
  24:	00000013          	addi	x0,x0,0
  28:	00000013          	addi	x0,x0,0
  2c:	00000013          	addi	x0,x0,0
  30:	00000013          	addi	x0,x0,0
  34:	00000013          	addi	x0,x0,0
  38:	00000013          	addi	x0,x0,0
  3c:	00000013          	addi	x0,x0,0
  40:	00000013          	addi	x0,x0,0
  44:	00000013          	addi	x0,x0,0
  48:	00000013          	addi	x0,x0,0
  4c:	00000013          	addi	x0,x0,0
  50:	00000013          	addi	x0,x0,0
  54:	00000013          	addi	x0,x0,0
  58:	00000013          	addi	x0,x0,0
  5c:	00000013          	addi	x0,x0,0
  60:	00000013          	addi	x0,x0,0
  64:	00000013          	addi	x0,x0,0
  68:	00000013          	addi	x0,x0,0
  6c:	00000013          	addi	x0,x0,0
  70:	00000013          	addi	x0,x0,0
  74:	00000013          	addi	x0,x0,0
  78:	00000013          	addi	x0,x0,0
  7c:	00000013          	addi	x0,x0,0
  80:	00000013          	addi	x0,x0,0
  84:	00000013          	addi	x0,x0,0
  88:	00000013          	addi	x0,x0,0
  8c:	00000013          	addi	x0,x0,0
  90:	00000013          	addi	x0,x0,0
  94:	00000013          	addi	x0,x0,0
  98:	00000013          	addi	x0,x0,0
  9c:	00000013          	addi	x0,x0,0
  a0:	00000013          	addi	x0,x0,0
  a4:	00000013          	addi	x0,x0,0
  a8:	00000013          	addi	x0,x0,0
  ac:	00000013          	addi	x0,x0,0
  b0:	00000013          	addi	x0,x0,0
  b4:	00000013          	addi	x0,x0,0
  b8:	00000013          	addi	x0,x0,0
  bc:	00000013          	addi	x0,x0,0
  c0:	00000013          	addi	x0,x0,0
  c4:	00000013          	addi	x0,x0,0
  c8:	00000013          	addi	x0,x0,0
  cc:	00000013          	addi	x0,x0,0
  d0:	00000013          	addi	x0,x0,0
  d4:	00000013          	addi	x0,x0,0
  d8:	00000013          	addi	x0,x0,0
  dc:	00000013          	addi	x0,x0,0
  e0:	00000013          	addi	x0,x0,0
  e4:	00000013          	addi	x0,x0,0
  e8:	00000013          	addi	x0,x0,0
  ec:	00000013          	addi	x0,x0,0
  f0:	00000013          	addi	x0,x0,0
  f4:	00000013          	addi	x0,x0,0
  f8:	00000013          	addi	x0,x0,0
  fc:	00000013          	addi	x0,x0,0
 100:	00000013          	addi	x0,x0,0
 104:	00000013          	addi	x0,x0,0
 108:	00000013          	addi	x0,x0,0
 10c:	00000013          	addi	x0,x0,0
 110:	00000013          	addi	x0,x0,0
 114:	00000013          	addi	x0,x0,0
 118:	00000013          	addi	x0,x0,0
 11c:	00000013          	addi	x0,x0,0
 120:	00000013          	addi	x0,x0,0
 124:	00000013          	addi	x0,x0,0
 128:	00000013          	addi	x0,x0,0
 12c:	00000013          	addi	x0,x0,0
 130:	00000013          	addi	x0,x0,0
 134:	00000013          	addi	x0,x0,0
 138:	00000013          	addi	x0,x0,0
 13c:	00000013          	addi	x0,x0,0
 140:	00000013          	addi	x0,x0,0
 144:	00000013          	addi	x0,x0,0
 148:	00000013          	addi	x0,x0,0
 14c:	00000013          	addi	x0,x0,0
 150:	00000013          	addi	x0,x0,0
 154:	00000013          	addi	x0,x0,0
 158:	00000013          	addi	x0,x0,0
 15c:	00000013          	addi	x0,x0,0
 160:	00000013          	addi	x0,x0,0
 164:	00000013          	addi	x0,x0,0
 168:	00000013          	addi	x0,x0,0
 16c:	00000013          	addi	x0,x0,0
 170:	00000013          	addi	x0,x0,0
 174:	00000013          	addi	x0,x0,0
 178:	00000013          	addi	x0,x0,0
 17c:	00000013          	addi	x0,x0,0
 180:	00000013          	addi	x0,x0,0
 184:	00000013          	addi	x0,x0,0
 188:	00000013          	addi	x0,x0,0
 18c:	00000013          	addi	x0,x0,0
 190:	00000e13          	addi	x28,x0,0
 194:	f00105b7          	lui	x11,0xf0010
 198:	ff858593          	addi	x11,x11,-8 # f000fff8 <begin_signature+0xf000eff8>
 19c:	00000613          	addi	x12,x0,0
 1a0:	00c5a023          	sw	x12,0(x11)
 1a4:	0040006f          	jal	x0,1a8 <exit>

000001a8 <exit>:
 1a8:	40001537          	lui	x10,0x40001
 1ac:	01c52023          	sw	x28,0(x10) # 40001000 <begin_signature+0x40000000>
 1b0:	0000006f          	jal	x0,1b0 <exit+0x8>
	...
